; Function Attrs: nounwind uwtable
define internal void @shutdown_MultiFuncCall(i64 noundef %0) #0 {
  %2 = inttoptr i64 %0 to ptr
  %3 = getelementptr inbounds nuw i8, ptr %2, i64 24
  %4 = load ptr, ptr %3, align 8
  store ptr null, ptr %3, align 8
  %5 = getelementptr inbounds nuw i8, ptr %4, i64 32
  %6 = load ptr, ptr %5, align 8
  tail call void @MemoryContextDelete(ptr noundef %6) #8
  ret void
}